Certificate:
    Data:
        Version: 3 (0x2)
        Serial Number: 2 (0x2)
        Signature Algorithm: sha256WithRSAEncryption
        Issuer: CN=127.0.0.1@
        Validity
            Not Before: May 23 23:11:08 2019 GMT
            Not After : May 20 23:11:08 2029 GMT
        Subject: CN=proxy-client
        Subject Public Key Info:
            Public Key Algorithm: rsaEncryption
                RSA Public-Key: (2048 bit)
                Modulus:
                    00:b4:79:2f:a9:31:dc:4d:95:c1:e2:31:14:72:19:
                    b9:7b:f3:18:1e:b8:91:7d:ca:1d:26:e6:ac:08:8a:
                    53:74:e1:3a:2c:a6:9a:d1:e7:5d:70:bf:06:e9:b0:
                    4c:e2:43:09:7d:9e:8a:1f:ae:dd:05:61:9c:2b:42:
                    3e:a6:a1:06:82:99:e1:8d:bc:9c:88:24:3f:c7:49:
                    6f:15:c6:64:7d:dd:53:f5:6e:42:f9:6e:ea:a7:14:
                    b7:03:66:98:19:0e:9b:fd:a2:89:bd:aa:36:22:f7:
                    8f:0a:88:78:61:1e:55:49:95:28:7b:91:45:f4:c3:
                    45:ef:39:e6:08:56:be:46:ea:3b:c5:8d:ea:c1:46:
                    ba:9c:31:2f:dd:e8:55:0d:cb:19:b6:5e:4f:c7:1b:
                    f0:ee:b8:62:4f:96:bf:fc:e4:39:8b:2d:df:26:e3:
                    01:93:e9:f1:8e:1d:39:30:84:52:12:59:63:df:e2:
                    47:25:83:05:a1:69:47:ae:6d:2e:70:db:f6:da:81:
                    85:6a:a0:19:f0:cd:be:c4:26:88:db:e6:66:d1:6d:
                    d1:7e:06:7a:bb:eb:f2:5e:9e:2a:9b:f4:03:8d:78:
                    55:4b:20:5e:ab:53:a1:47:62:27:3b:62:c1:1d:a9:
                    9d:2c:de:3e:bb:8a:8b:4e:01:ec:d6:82:bf:5e:8b:
                    df:23
                Exponent: 65537 (0x10001)
        X509v3 extensions:
            X509v3 Basic Constraints: 
                CA:FALSE
            X509v3 Subject Key Identifier: 
                D7:A1:BF:AF:2E:3B:F0:F4:CB:8A:A5:84:6A:FB:F7:D3:B4:FB:A1:0C
            X509v3 Authority Key Identifier: 
                keyid:2F:16:50:70:E2:67:59:91:EB:5F:74:8B:01:60:50:1F:F1:18:80:28
                DirName:/CN=127.0.0.1@
                serial:0E:20:89:E3:57:C0:20:4C:01:E6:47:84:48:01:17:FE:D5:50:2D:FC

            X509v3 Extended Key Usage: 
                TLS Web Client Authentication
            X509v3 Key Usage: 
                Digital Signature
    Signature Algorithm: sha256WithRSAEncryption
         a3:b3:de:18:40:6e:61:7a:ea:95:d4:62:36:9f:ed:08:96:49:
         96:12:6b:ee:32:9d:f6:cd:3e:ea:95:db:0e:59:df:cd:a8:81:
         e0:a2:f5:55:dd:e3:ae:4b:7e:7e:15:18:5e:e8:51:bf:58:26:
         83:08:da:0f:95:da:91:5b:8a:5a:10:3a:ec:64:59:81:a3:59:
         0f:09:1f:3a:9b:81:aa:1a:3e:5b:5b:72:27:71:25:c5:cf:0f:
         ff:29:55:96:ca:3d:89:cc:1e:bb:fd:11:84:99:73:99:06:0b:
         d6:70:4c:59:30:d5:a6:b0:08:bc:99:34:c4:ac:09:02:32:92:
         0d:02:e5:46:cf:a8:48:6d:d9:9c:27:04:86:dd:f5:73:40:76:
         ab:45:35:42:31:a5:19:f3:aa:c6:bc:e7:57:69:87:da:aa:4f:
         77:85:20:30:3e:8e:73:9c:f8:e4:a8:9e:c8:c2:78:e3:e4:16:
         0c:95:06:56:a5:97:6f:b5:e1:4f:ea:76:8b:3f:ff:67:f9:de:
         f0:54:68:dd:f7:da:82:f5:7f:65:f5:2a:c8:75:c4:df:22:ae:
         d0:f8:60:bd:fa:b0:cb:a5:f9:ef:64:41:b9:73:18:19:36:33:
         bd:c0:3e:27:c8:fa:34:a8:b7:a3:96:2a:8a:4c:6f:39:58:c0:
         2d:15:21:b5
-----BEGIN CERTIFICATE-----
MIIDSTCCAjGgAwIBAgIBAjANBgkqhkiG9w0BAQsFADAVMRMwEQYDVQQDDAoxMjcu
MC4wLjFAMB4XDTE5MDUyMzIzMTEwOFoXDTI5MDUyMDIzMTEwOFowFzEVMBMGA1UE
AwwMcHJveHktY2xpZW50MIIBIjANBgkqhkiG9w0BAQEFAAOCAQ8AMIIBCgKCAQEA
tHkvqTHcTZXB4jEUchm5e/MYHriRfcodJuasCIpTdOE6LKaa0eddcL8G6bBM4kMJ
fZ6KH67dBWGcK0I+pqEGgpnhjbyciCQ/x0lvFcZkfd1T9W5C+W7qpxS3A2aYGQ6b
/aKJvao2IvePCoh4YR5VSZUoe5FF9MNF7znmCFa+Ruo7xY3qwUa6nDEv3ehVDcsZ
tl5Pxxvw7rhiT5a//OQ5iy3fJuMBk+nxjh05MIRSEllj3+JHJYMFoWlHrm0ucNv2
2oGFaqAZ8M2+xCaI2+Zm0W3RfgZ6u+vyXp4qm/QDjXhVSyBeq1OhR2InO2LBHamd
LN4+u4qLTgHs1oK/XovfIwIDAQABo4GhMIGeMAkGA1UdEwQCMAAwHQYDVR0OBBYE
FNehv68uO/D0y4qlhGr799O0+6EMMFAGA1UdIwRJMEeAFC8WUHDiZ1mR6190iwFg
UB/xGIAooRmkFzAVMRMwEQYDVQQDDAoxMjcuMC4wLjFAghQOIInjV8AgTAHmR4RI
ARf+1VAt/DATBgNVHSUEDDAKBggrBgEFBQcDAjALBgNVHQ8EBAMCB4AwDQYJKoZI
hvcNAQELBQADggEBAKOz3hhAbmF66pXUYjaf7QiWSZYSa+4ynfbNPuqV2w5Z382o
geCi9VXd465Lfn4VGF7oUb9YJoMI2g+V2pFbiloQOuxkWYGjWQ8JHzqbgaoaPltb
cidxJcXPD/8pVZbKPYnMHrv9EYSZc5kGC9ZwTFkw1aawCLyZNMSsCQIykg0C5UbP
qEht2ZwnBIbd9XNAdqtFNUIxpRnzqsa851dph9qqT3eFIDA+jnOc+OSonsjCeOPk
FgyVBlall2+14U/qdos//2f53vBUaN332oL1f2X1Ksh1xN8irtD4YL36sMul+e9k
QblzGBk2M73APifI+jSot6OWKopMbzlYwC0VIbU=
-----END CERTIFICATE-----
